; Function Attrs: mustprogress uwtable
define internal void @"_ZNSt17_Function_handlerIFvvEZN3gmx11PullElement16schedulePostStepEldRKSt8functionIFvS3_IS0_EEEE3$_0E9_M_invokeERKSt9_Any_data"(ptr nocapture noundef nonnull readonly align 8 dereferenceable(16) %0) #0 align 2 {
  %.val = load ptr, ptr %0, align 8
  %2 = load ptr, ptr %.val, align 8
  %3 = getelementptr inbounds i8, ptr %2, i64 72
  %4 = load ptr, ptr %3, align 8
  %5 = getelementptr inbounds i8, ptr %.val, i64 8
  %6 = load i64, ptr %5, align 8
  %7 = getelementptr inbounds i8, ptr %.val, i64 16
  %8 = load double, ptr %7, align 8
  tail call void @_Z17pull_print_outputP6pull_tld(ptr noundef %4, i64 noundef %6, double noundef %8)
  ret void
}